Certificate:
    Data:
        Version: 3 (0x2)
        Serial Number: 784 (0x310)
        Signature Algorithm: sha512WithRSAEncryption
        Issuer: C=IT, O=IGI, CN=Test CA
        Validity
            Not Before: Apr 20 09:55:23 2017 GMT
            Not After : Apr 18 09:55:23 2027 GMT
        Subject: C=IT, O=IGI, CN=*.local.io
        Subject Public Key Info:
            Public Key Algorithm: rsaEncryption
            RSA Public Key: (2048 bit)
                Modulus (2048 bit):
                    00:c6:1c:fa:92:9e:ed:0d:5f:bc:3e:49:5e:90:14:
                    02:a7:78:de:b6:cf:57:23:81:4d:7f:81:8e:ae:43:
                    67:8b:ff:83:4c:c1:1e:f8:ab:c1:40:d5:72:e4:65:
                    c8:ff:7b:f7:6c:ac:b4:b7:43:f2:e7:98:b7:c9:76:
                    25:8c:e3:81:9a:c4:77:ba:12:f6:47:0e:01:ea:80:
                    e8:d3:bb:28:7d:b8:1b:f6:dd:51:8c:9e:3f:26:25:
                    23:ab:f0:a6:ae:5e:4f:cf:ad:18:3d:cc:b1:2f:91:
                    01:84:17:d5:17:44:be:d2:fa:20:0d:ff:87:07:63:
                    52:0f:9c:c3:32:62:23:68:9c:e7:40:06:98:65:69:
                    11:4b:38:88:0e:8b:7b:fe:23:c4:15:db:ee:f8:a6:
                    48:ee:91:89:14:35:5b:6f:f2:85:53:21:62:7b:a5:
                    7a:38:53:63:6d:f3:21:bb:9b:18:1e:e4:a0:c0:95:
                    c0:68:61:75:da:77:00:3a:15:75:42:1d:30:47:58:
                    2f:0e:9b:14:06:38:97:03:a3:20:d5:06:e2:70:81:
                    e3:b5:2a:ac:69:97:dc:87:df:5c:9a:80:c4:2c:36:
                    62:75:f3:01:59:5a:2f:56:70:a0:2a:c7:2a:a8:6b:
                    da:1c:b4:f8:92:d5:11:39:c9:21:30:e9:f1:53:7f:
                    34:f5
                Exponent: 65537 (0x10001)
        X509v3 extensions:
            X509v3 Basic Constraints: critical
                CA:FALSE
            X509v3 Subject Key Identifier: 
                E4:A0:F6:A4:A4:4C:AC:A9:C1:2E:42:B3:24:15:B6:4D:EF:7E:F9:52
            X509v3 Key Usage: critical
                Digital Signature, Non Repudiation, Key Encipherment
            X509v3 Extended Key Usage: 
                TLS Web Server Authentication, TLS Web Client Authentication, Microsoft Server Gated Crypto, Netscape Server Gated Crypto, E-mail Protection
            X509v3 Authority Key Identifier: 
                keyid:91:77:36:7B:2E:B4:69:F3:27:EA:B7:F6:08:8B:4A:23:A2:11:49:C6

            X509v3 Subject Alternative Name: 
                DNS:*.local.io
    Signature Algorithm: sha512WithRSAEncryption
        f6:3e:b2:2c:23:6c:34:54:2b:68:cb:de:d3:da:68:50:29:92:
        92:39:5e:90:19:9e:c6:08:06:c3:c1:21:24:10:bd:93:a2:28:
        4f:d6:7a:2b:8f:14:0b:86:b6:17:d9:8c:4a:c6:a6:af:10:39:
        66:d6:2c:be:b2:d4:76:19:ab:5a:4c:02:fc:a2:a3:8c:a4:8d:
        85:38:9b:9f:2b:84:4b:ed:c4:ca:a7:f6:bc:53:bb:ef:a2:12:
        75:e5:dd:b1:83:66:ce:91:ff:8d:76:de:3e:e6:9d:26:bd:aa:
        f5:a2:23:40:0b:d7:3e:9f:9a:5f:79:df:96:d6:a4:55:86:f5:
        f7:9f:86:6b:8d:1b:5b:0d:c0:29:40:84:0a:d7:0b:61:ea:6a:
        40:14:c8:4a:5e:48:7f:5f:4e:ff:32:3e:28:90:b3:11:a1:2b:
        8e:11:5b:ad:86:f4:57:d0:93:6e:91:3b:b0:99:16:46:07:e7:
        7a:df:4c:4e:50:22:03:6f:48:7d:c7:f8:20:9f:2f:dc:58:ed:
        d8:84:52:a7:36:e3:84:fa:16:b4:d5:ff:d6:b1:30:66:14:49:
        d4:0c:06:ee:74:2f:04:16:a4:ac:08:e3:8f:ed:bc:f4:61:e3:
        73:aa:23:bd:45:82:d6:cc:d3:59:2e:4f:0a:b1:38:d9:b5:ac:
        92:e9:e6:04
-----BEGIN CERTIFICATE-----
MIIDkjCCAnqgAwIBAgICAxAwDQYJKoZIhvcNAQENBQAwLTELMAkGA1UEBhMCSVQx
DDAKBgNVBAoMA0lHSTEQMA4GA1UEAwwHVGVzdCBDQTAeFw0xNzA0MjAwOTU1MjNa
Fw0yNzA0MTgwOTU1MjNaMDAxCzAJBgNVBAYTAklUMQwwCgYDVQQKDANJR0kxEzAR
BgNVBAMMCioubG9jYWwuaW8wggEiMA0GCSqGSIb3DQEBAQUAA4IBDwAwggEKAoIB
AQDGHPqSnu0NX7w+SV6QFAKneN62z1cjgU1/gY6uQ2eL/4NMwR74q8FA1XLkZcj/
e/dsrLS3Q/LnmLfJdiWM44GaxHe6EvZHDgHqgOjTuyh9uBv23VGMnj8mJSOr8Kau
Xk/PrRg9zLEvkQGEF9UXRL7S+iAN/4cHY1IPnMMyYiNonOdABphlaRFLOIgOi3v+
I8QV2+74pkjukYkUNVtv8oVTIWJ7pXo4U2Nt8yG7mxge5KDAlcBoYXXadwA6FXVC
HTBHWC8OmxQGOJcDoyDVBuJwgeO1Kqxpl9yH31yagMQsNmJ18wFZWi9WcKAqxyqo
a9octPiS1RE5ySEw6fFTfzT1AgMBAAGjgbgwgbUwDAYDVR0TAQH/BAIwADAdBgNV
HQ4EFgQU5KD2pKRMrKnBLkKzJBW2Te9++VIwDgYDVR0PAQH/BAQDAgXgMD4GA1Ud
JQQ3MDUGCCsGAQUFBwMBBggrBgEFBQcDAgYKKwYBBAGCNwoDAwYJYIZIAYb4QgQB
BggrBgEFBQcDBDAfBgNVHSMEGDAWgBSRdzZ7LrRp8yfqt/YIi0ojohFJxjAVBgNV
HREEDjAMggoqLmxvY2FsLmlvMA0GCSqGSIb3DQEBDQUAA4IBAQD2PrIsI2w0VCto
y97T2mhQKZKSOV6QGZ7GCAbDwSEkEL2ToihP1norjxQLhrYX2YxKxqavEDlm1iy+
stR2GataTAL8oqOMpI2FOJufK4RL7cTKp/a8U7vvohJ15d2xg2bOkf+Ndt4+5p0m
var1oiNAC9c+n5pfed+W1qRVhvX3n4ZrjRtbDcApQIQK1wth6mpAFMhKXkh/X07/
Mj4okLMRoSuOEVuthvRX0JNukTuwmRZGB+d630xOUCIDb0h9x/ggny/cWO3YhFKn
NuOE+ha01f/WsTBmFEnUDAbudC8EFqSsCOOP7bz0YeNzqiO9RYLWzNNZLk8KsTjZ
tayS6eYE
-----END CERTIFICATE-----
